; ModuleID = 'source-C-CXX/60/614.c'
source_filename = "source-C-CXX/60/614.c"
target datalayout = "e-m:e-p270:32:32-p271:32:32-p272:64:64-i64:64-f80:128-n8:16:32:64-S128"
target triple = "x86_64-pc-linux-gnu"

@.str = private unnamed_addr constant [3 x i8] c"%d\00", align 1
@.str.1 = private unnamed_addr constant [4 x i8] c"%d\0A\00", align 1

; Function Attrs: nofree nounwind sspstrong uwtable
define dso_local i32 @main() local_unnamed_addr #0 {
  %1 = alloca i32, align 4
  %2 = alloca [10000 x i32], align 16
  %3 = alloca [10000 x i32], align 16
  %4 = bitcast i32* %1 to i8*
  call void @llvm.lifetime.start.p0i8(i64 4, i8* nonnull %4) #4
  %5 = bitcast [10000 x i32]* %2 to i8*
  call void @llvm.lifetime.start.p0i8(i64 40000, i8* nonnull %5) #4
  call void @llvm.memset.p0i8.i64(i8* noundef nonnull align 16 dereferenceable(40000) %5, i8 0, i64 40000, i1 false)
  %6 = getelementptr inbounds [10000 x i32], [10000 x i32]* %2, i64 0, i64 0
  store i32 1, i32* %6, align 16
  %7 = getelementptr inbounds [10000 x i32], [10000 x i32]* %2, i64 0, i64 1
  store i32 1, i32* %7, align 4
  %8 = bitcast [10000 x i32]* %3 to i8*
  call void @llvm.lifetime.start.p0i8(i64 40000, i8* nonnull %8) #4
  %9 = call i32 (i8*, ...) @__isoc99_scanf(i8* getelementptr inbounds ([3 x i8], [3 x i8]* @.str, i64 0, i64 0), i32* nonnull %1)
  %10 = load i32, i32* %1, align 4, !tbaa !5
  %11 = icmp sgt i32 %10, 0
  br i1 %11, label %14, label %90

12:                                               ; preds = %14
  %13 = icmp sgt i32 %19, 0
  br i1 %13, label %22, label %90

14:                                               ; preds = %0, %14
  %15 = phi i64 [ %18, %14 ], [ 0, %0 ]
  %16 = getelementptr inbounds [10000 x i32], [10000 x i32]* %3, i64 0, i64 %15
  %17 = call i32 (i8*, ...) @__isoc99_scanf(i8* getelementptr inbounds ([3 x i8], [3 x i8]* @.str, i64 0, i64 0), i32* nonnull %16)
  %18 = add nuw nsw i64 %15, 1
  %19 = load i32, i32* %1, align 4, !tbaa !5
  %20 = sext i32 %19 to i64
  %21 = icmp slt i64 %18, %20
  br i1 %21, label %14, label %12, !llvm.loop !9

22:                                               ; preds = %12, %80
  %23 = phi i64 [ %86, %80 ], [ 0, %12 ]
  %24 = getelementptr inbounds [10000 x i32], [10000 x i32]* %3, i64 0, i64 %23
  %25 = load i32, i32* %24, align 4, !tbaa !5
  %26 = icmp sgt i32 %25, 0
  br i1 %26, label %27, label %80

27:                                               ; preds = %22
  %28 = zext i32 %25 to i64
  %29 = add nsw i64 %28, -1
  %30 = and i64 %28, 3
  %31 = icmp ult i64 %29, 3
  br i1 %31, label %64, label %32

32:                                               ; preds = %27
  %33 = and i64 %28, 4294967292
  br label %34

34:                                               ; preds = %34, %32
  %35 = phi i32 [ 1, %32 ], [ %59, %34 ]
  %36 = phi i64 [ 0, %32 ], [ %56, %34 ]
  %37 = phi i64 [ %33, %32 ], [ %62, %34 ]
  %38 = or i64 %36, 1
  %39 = getelementptr inbounds [10000 x i32], [10000 x i32]* %2, i64 0, i64 %36
  %40 = load i32, i32* %39, align 16, !tbaa !5
  %41 = add nsw i32 %40, %35
  %42 = or i64 %36, 2
  %43 = getelementptr inbounds [10000 x i32], [10000 x i32]* %2, i64 0, i64 %42
  store i32 %41, i32* %43, align 8, !tbaa !5
  %44 = or i64 %36, 2
  %45 = getelementptr inbounds [10000 x i32], [10000 x i32]* %2, i64 0, i64 %38
  %46 = load i32, i32* %45, align 4, !tbaa !5
  %47 = add nsw i32 %46, %41
  %48 = or i64 %36, 3
  %49 = getelementptr inbounds [10000 x i32], [10000 x i32]* %2, i64 0, i64 %48
  store i32 %47, i32* %49, align 4, !tbaa !5
  %50 = or i64 %36, 3
  %51 = getelementptr inbounds [10000 x i32], [10000 x i32]* %2, i64 0, i64 %44
  %52 = load i32, i32* %51, align 8, !tbaa !5
  %53 = add nsw i32 %52, %47
  %54 = add nuw nsw i64 %36, 4
  %55 = getelementptr inbounds [10000 x i32], [10000 x i32]* %2, i64 0, i64 %54
  store i32 %53, i32* %55, align 16, !tbaa !5
  %56 = add nuw nsw i64 %36, 4
  %57 = getelementptr inbounds [10000 x i32], [10000 x i32]* %2, i64 0, i64 %50
  %58 = load i32, i32* %57, align 4, !tbaa !5
  %59 = add nsw i32 %58, %53
  %60 = add nuw i64 %36, 5
  %61 = getelementptr inbounds [10000 x i32], [10000 x i32]* %2, i64 0, i64 %60
  store i32 %59, i32* %61, align 4, !tbaa !5
  %62 = add i64 %37, -4
  %63 = icmp eq i64 %62, 0
  br i1 %63, label %64, label %34, !llvm.loop !11

64:                                               ; preds = %34, %27
  %65 = phi i32 [ 1, %27 ], [ %59, %34 ]
  %66 = phi i64 [ 0, %27 ], [ %56, %34 ]
  %67 = icmp eq i64 %30, 0
  br i1 %67, label %80, label %68

68:                                               ; preds = %64, %68
  %69 = phi i32 [ %75, %68 ], [ %65, %64 ]
  %70 = phi i64 [ %72, %68 ], [ %66, %64 ]
  %71 = phi i64 [ %78, %68 ], [ %30, %64 ]
  %72 = add nuw nsw i64 %70, 1
  %73 = getelementptr inbounds [10000 x i32], [10000 x i32]* %2, i64 0, i64 %70
  %74 = load i32, i32* %73, align 4, !tbaa !5
  %75 = add nsw i32 %74, %69
  %76 = add nuw nsw i64 %70, 2
  %77 = getelementptr inbounds [10000 x i32], [10000 x i32]* %2, i64 0, i64 %76
  store i32 %75, i32* %77, align 4, !tbaa !5
  %78 = add i64 %71, -1
  %79 = icmp eq i64 %78, 0
  br i1 %79, label %80, label %68, !llvm.loop !12

80:                                               ; preds = %64, %68, %22
  %81 = add nsw i32 %25, -1
  %82 = sext i32 %81 to i64
  %83 = getelementptr inbounds [10000 x i32], [10000 x i32]* %2, i64 0, i64 %82
  %84 = load i32, i32* %83, align 4, !tbaa !5
  %85 = call i32 (i8*, ...) @printf(i8* nonnull dereferenceable(1) getelementptr inbounds ([4 x i8], [4 x i8]* @.str.1, i64 0, i64 0), i32 %84)
  %86 = add nuw nsw i64 %23, 1
  %87 = load i32, i32* %1, align 4, !tbaa !5
  %88 = sext i32 %87 to i64
  %89 = icmp slt i64 %86, %88
  br i1 %89, label %22, label %90, !llvm.loop !14

90:                                               ; preds = %80, %0, %12
  call void @llvm.lifetime.end.p0i8(i64 40000, i8* nonnull %8) #4
  call void @llvm.lifetime.end.p0i8(i64 40000, i8* nonnull %5) #4
  call void @llvm.lifetime.end.p0i8(i64 4, i8* nonnull %4) #4
  ret i32 0
}

; Function Attrs: argmemonly mustprogress nofree nosync nounwind willreturn
declare void @llvm.lifetime.start.p0i8(i64 immarg, i8* nocapture) #1

; Function Attrs: argmemonly mustprogress nofree nounwind willreturn writeonly
declare void @llvm.memset.p0i8.i64(i8* nocapture writeonly, i8, i64, i1 immarg) #2

; Function Attrs: nofree nounwind
declare noundef i32 @__isoc99_scanf(i8* nocapture noundef readonly, ...) local_unnamed_addr #3

; Function Attrs: nofree nounwind
declare noundef i32 @printf(i8* nocapture noundef readonly, ...) local_unnamed_addr #3

; Function Attrs: argmemonly mustprogress nofree nosync nounwind willreturn
declare void @llvm.lifetime.end.p0i8(i64 immarg, i8* nocapture) #1


!llvm.module.flags = !{!0, !1, !2, !3}
!llvm.ident = !{!4}

!0 = !{i32 1, !"wchar_size", i32 4}
!1 = !{i32 7, !"PIC Level", i32 2}
!2 = !{i32 7, !"PIE Level", i32 2}
!3 = !{i32 7, !"uwtable", i32 1}
!4 = !{!"clang version 13.0.0"}
!5 = !{!6, !6, i64 0}
!6 = !{!"int", !7, i64 0}
!7 = !{!"omnipotent char", !8, i64 0}
!8 = !{!"Simple C/C++ TBAA"}
!9 = distinct !{!9, !10}
!10 = !{!"llvm.loop.mustprogress"}
!11 = distinct !{!11, !10}
!12 = distinct !{!12, !13}
!13 = !{!"llvm.loop.unroll.disable"}
!14 = distinct !{!14, !10}
